target datalayout = "e-m:e-p270:32:32-p271:32:32-p272:64:64-i64:64-i128:128-f80:128-n8:16:32:64-S128"
target triple = "x86_64-unknown-linux-gnu"

%struct.UString = type { ptr, i32, i32 }
%struct.ParseState = type { [4 x %struct.Lookahead], i32, ptr, ptr, ptr, i32, ptr, i32, ptr, i8, i8, i8 }
%struct.Lookahead = type { i32, %struct.UString, %struct.UString, i32 }

@.str.29 = private unnamed_addr constant [7 x i8] c"(null)\00", align 1
@.str.123 = private unnamed_addr constant [17 x i8] c" %s at line %i \0A\00", align 1
@.str.124 = private unnamed_addr constant [2 x i8] c"/\00", align 1
@.str.125 = private unnamed_addr constant [51 x i8] c"An error occurred while opening the input file %s\0A\00", align 1

; Function Attrs: mustprogress nounwind uwtable
define internal noundef signext i8 @_ZL9U_FAILURE10UErrorCode(i32 noundef %code) #0 {
entry:
  %code.addr = alloca i32, align 4
  store i32 %code, ptr %code.addr, align 4
  %0 = load i32, ptr %code.addr, align 4
  %cmp = icmp sgt i32 %0, 0
  %conv = zext i1 %cmp to i8
  ret i8 %conv
}

; Function Attrs: mustprogress uwtable
define internal noundef ptr @_ZL19parseTransliteratorP10ParseStatePcjPK7UStringP10UErrorCode(ptr noundef %state, ptr noundef %tag, i32 noundef %startline, ptr noundef %0, ptr noundef %status) #1 {
entry:
  %retval = alloca ptr, align 8
  %state.addr = alloca ptr, align 8
  %tag.addr = alloca ptr, align 8
  %startline.addr = alloca i32, align 4
  %.addr = alloca ptr, align 8
  %status.addr = alloca ptr, align 8
  %result = alloca ptr, align 8
  %tokenValue = alloca ptr, align 8
  %file = alloca ptr, align 8
  %filename = alloca [256 x i8], align 16
  %cs = alloca [128 x i8], align 16
  %line = alloca i32, align 4
  %ucbuf = alloca ptr, align 8
  %cp = alloca ptr, align 8
  %pTarget = alloca ptr, align 8
  %pSource = alloca ptr, align 8
  %size = alloca i32, align 4
  store ptr %state, ptr %state.addr, align 8
  store ptr %tag, ptr %tag.addr, align 8
  store i32 %startline, ptr %startline.addr, align 4
  store ptr %0, ptr %.addr, align 8
  store ptr %status, ptr %status.addr, align 8
  store ptr null, ptr %result, align 8
  store ptr null, ptr %file, align 8
  call void @llvm.memset.p0.i64(ptr align 16 %filename, i8 0, i64 256, i1 false)
  call void @llvm.memset.p0.i64(ptr align 16 %cs, i8 0, i64 128, i1 false)
  store ptr null, ptr %ucbuf, align 8
  store ptr null, ptr %cp, align 8
  store ptr null, ptr %pTarget, align 8
  store ptr null, ptr %pSource, align 8
  store i32 0, ptr %size, align 4
  %1 = load ptr, ptr %state.addr, align 8
  %2 = load ptr, ptr %status.addr, align 8
  call void @_ZL6expectP10ParseState10ETokenTypePP7UStringS3_PjP10UErrorCode(ptr noundef %1, i32 noundef 0, ptr noundef %tokenValue, ptr noundef null, ptr noundef %line, ptr noundef %2)
  %call = call signext i8 @isVerbose()
  %tobool = icmp ne i8 %call, 0
  br i1 %tobool, label %if.then, label %if.end

if.then:                                          ; preds = %entry
  %3 = load ptr, ptr %tag.addr, align 8
  %cmp = icmp eq ptr %3, null
  br i1 %cmp, label %cond.true, label %cond.false

cond.true:                                        ; preds = %if.then
  br label %cond.end

cond.false:                                       ; preds = %if.then
  %4 = load ptr, ptr %tag.addr, align 8
  br label %cond.end

cond.end:                                         ; preds = %cond.false, %cond.true
  %cond = phi ptr [ @.str.29, %cond.true ], [ %4, %cond.false ]
  %5 = load i32, ptr %startline.addr, align 4
  %call1 = call i32 (ptr, ...) @printf(ptr noundef @.str.123, ptr noundef %cond, i32 noundef %5)
  br label %if.end

if.end:                                           ; preds = %cond.end, %entry
  %6 = load ptr, ptr %status.addr, align 8
  %7 = load i32, ptr %6, align 4
  %call2 = call noundef signext i8 @_ZL9U_FAILURE10UErrorCode(i32 noundef %7)
  %tobool3 = icmp ne i8 %call2, 0
  br i1 %tobool3, label %if.then4, label %if.end5

if.then4:                                         ; preds = %if.end
  store ptr null, ptr %retval, align 8
  br label %return

if.end5:                                          ; preds = %if.end
  %8 = load ptr, ptr %state.addr, align 8
  %inputdir = getelementptr inbounds %struct.ParseState, ptr %8, i32 0, i32 4
  %9 = load ptr, ptr %inputdir, align 8
  %cmp6 = icmp ne ptr %9, null
  br i1 %cmp6, label %if.then7, label %if.end16

if.then7:                                         ; preds = %if.end5
  %arraydecay = getelementptr inbounds [256 x i8], ptr %filename, i64 0, i64 0
  %10 = load ptr, ptr %state.addr, align 8
  %inputdir8 = getelementptr inbounds %struct.ParseState, ptr %10, i32 0, i32 4
  %11 = load ptr, ptr %inputdir8, align 8
  %call9 = call ptr @strcat(ptr noundef %arraydecay, ptr noundef %11) #12
  %12 = load ptr, ptr %state.addr, align 8
  %inputdir10 = getelementptr inbounds %struct.ParseState, ptr %12, i32 0, i32 4
  %13 = load ptr, ptr %inputdir10, align 8
  %14 = load ptr, ptr %state.addr, align 8
  %inputdirLength = getelementptr inbounds %struct.ParseState, ptr %14, i32 0, i32 5
  %15 = load i32, ptr %inputdirLength, align 8
  %sub = sub i32 %15, 1
  %idxprom = zext i32 %sub to i64
  %arrayidx = getelementptr inbounds i8, ptr %13, i64 %idxprom
  %16 = load i8, ptr %arrayidx, align 1
  %conv = sext i8 %16 to i32
  %cmp11 = icmp ne i32 %conv, 47
  br i1 %cmp11, label %if.then12, label %if.end15

if.then12:                                        ; preds = %if.then7
  %arraydecay13 = getelementptr inbounds [256 x i8], ptr %filename, i64 0, i64 0
  %call14 = call ptr @strcat(ptr noundef %arraydecay13, ptr noundef @.str.124) #12
  br label %if.end15

if.end15:                                         ; preds = %if.then12, %if.then7
  br label %if.end16

if.end16:                                         ; preds = %if.end15, %if.end5
  %17 = load ptr, ptr %tokenValue, align 8
  %fChars = getelementptr inbounds %struct.UString, ptr %17, i32 0, i32 0
  %18 = load ptr, ptr %fChars, align 8
  %arraydecay17 = getelementptr inbounds [128 x i8], ptr %cs, i64 0, i64 0
  %19 = load ptr, ptr %tokenValue, align 8
  %fLength = getelementptr inbounds %struct.UString, ptr %19, i32 0, i32 1
  %20 = load i32, ptr %fLength, align 8
  call void @u_UCharsToChars_75(ptr noundef %18, ptr noundef %arraydecay17, i32 noundef %20)
  %21 = load ptr, ptr %state.addr, align 8
  %22 = load ptr, ptr %status.addr, align 8
  call void @_ZL6expectP10ParseState10ETokenTypePP7UStringS3_PjP10UErrorCode(ptr noundef %21, i32 noundef 2, ptr noundef null, ptr noundef null, ptr noundef null, ptr noundef %22)
  %23 = load ptr, ptr %status.addr, align 8
  %24 = load i32, ptr %23, align 4
  %call18 = call noundef signext i8 @_ZL9U_FAILURE10UErrorCode(i32 noundef %24)
  %tobool19 = icmp ne i8 %call18, 0
  br i1 %tobool19, label %if.then20, label %if.end21

if.then20:                                        ; preds = %if.end16
  store ptr null, ptr %retval, align 8
  br label %return

if.end21:                                         ; preds = %if.end16
  %arraydecay22 = getelementptr inbounds [256 x i8], ptr %filename, i64 0, i64 0
  %arraydecay23 = getelementptr inbounds [128 x i8], ptr %cs, i64 0, i64 0
  %call24 = call ptr @strcat(ptr noundef %arraydecay22, ptr noundef %arraydecay23) #12
  %arraydecay25 = getelementptr inbounds [256 x i8], ptr %filename, i64 0, i64 0
  %call26 = call signext i8 @getShowWarning()
  %25 = load ptr, ptr %status.addr, align 8
  %call27 = call ptr @ucbuf_open(ptr noundef %arraydecay25, ptr noundef %cp, i8 noundef signext %call26, i8 noundef signext 0, ptr noundef %25)
  store ptr %call27, ptr %ucbuf, align 8
  %26 = load ptr, ptr %status.addr, align 8
  %27 = load i32, ptr %26, align 4
  %call28 = call noundef signext i8 @_ZL9U_FAILURE10UErrorCode(i32 noundef %27)
  %tobool29 = icmp ne i8 %call28, 0
  br i1 %tobool29, label %if.then30, label %if.end32

if.then30:                                        ; preds = %if.end21
  %28 = load i32, ptr %line, align 4
  %arraydecay31 = getelementptr inbounds [256 x i8], ptr %filename, i64 0, i64 0
  call void (i32, ptr, ...) @error(i32 noundef %28, ptr noundef @.str.125, ptr noundef %arraydecay31)
  store ptr null, ptr %retval, align 8
  br label %return

if.end32:                                         ; preds = %if.end21
  %29 = load ptr, ptr %ucbuf, align 8
  %30 = load ptr, ptr %status.addr, align 8
  %call33 = call ptr @ucbuf_getBuffer(ptr noundef %29, ptr noundef %size, ptr noundef %30)
  store ptr %call33, ptr %pSource, align 8
  %31 = load i32, ptr %size, align 4
  %add = add nsw i32 %31, 1
  %mul = mul nsw i32 2, %add
  %conv34 = sext i32 %mul to i64
  %call35 = call noalias ptr @uprv_malloc_75(i64 noundef %conv34) #13
  store ptr %call35, ptr %pTarget, align 8
  %32 = load ptr, ptr %pTarget, align 8
  %33 = load i32, ptr %size, align 4
  %mul36 = mul nsw i32 %33, 2
  %conv37 = sext i32 %mul36 to i64
  call void @llvm.memset.p0.i64(ptr align 2 %32, i8 0, i64 %conv37, i1 false)
  %34 = load ptr, ptr %pSource, align 8
  %35 = load i32, ptr %size, align 4
  %36 = load ptr, ptr %pTarget, align 8
  %37 = load ptr, ptr %status.addr, align 8
  %call38 = call i32 @utrans_stripRules_75(ptr noundef %34, i32 noundef %35, ptr noundef %36, ptr noundef %37)
  store i32 %call38, ptr %size, align 4
  %38 = load ptr, ptr %state.addr, align 8
  %bundle = getelementptr inbounds %struct.ParseState, ptr %38, i32 0, i32 3
  %39 = load ptr, ptr %bundle, align 8
  %40 = load ptr, ptr %tag.addr, align 8
  %41 = load ptr, ptr %pTarget, align 8
  %42 = load i32, ptr %size, align 4
  %43 = load ptr, ptr %status.addr, align 8
  %call39 = call ptr @string_open(ptr noundef %39, ptr noundef %40, ptr noundef %41, i32 noundef %42, ptr noundef null, ptr noundef %43)
  store ptr %call39, ptr %result, align 8
  %44 = load ptr, ptr %ucbuf, align 8
  call void @ucbuf_close(ptr noundef %44)
  %45 = load ptr, ptr %pTarget, align 8
  call void @uprv_free_75(ptr noundef %45)
  %46 = load ptr, ptr %file, align 8
  call void @T_FileStream_close(ptr noundef %46)
  %47 = load ptr, ptr %result, align 8
  store ptr %47, ptr %retval, align 8
  br label %return

return:                                           ; preds = %if.end32, %if.then30, %if.then20, %if.then4
  %48 = load ptr, ptr %retval, align 8
  ret ptr %48
}