; Function Attrs: mustprogress uwtable
define internal noundef ptr @_ZL19parseTransliteratorP10ParseStatePcjPK7UStringP10UErrorCode(ptr noundef %state, ptr noundef %tag, i32 noundef %startline, ptr nocapture readnone %0, ptr noundef %status) #1 {
entry:
  %tokenValue = alloca ptr, align 8
  %filename = alloca [256 x i8], align 16
  %cs = alloca [128 x i8], align 16
  %line = alloca i32, align 4
  %cp = alloca ptr, align 8
  %size = alloca i32, align 4
  call void @llvm.memset.p0.i64(ptr noundef nonnull align 16 dereferenceable(256) %filename, i8 0, i64 256, i1 false)
  call void @llvm.memset.p0.i64(ptr noundef nonnull align 16 dereferenceable(128) %cs, i8 0, i64 128, i1 false)
  store ptr null, ptr %cp, align 8
  store i32 0, ptr %size, align 4
  call fastcc void @_ZL6expectP10ParseState10ETokenTypePP7UStringS3_PjP10UErrorCode(ptr noundef %state, i32 noundef 0, ptr noundef nonnull %tokenValue, ptr noundef null, ptr noundef nonnull %line, ptr noundef %status)
  %call = call signext i8 @isVerbose()
  %tobool.not = icmp eq i8 %call, 0
  br i1 %tobool.not, label %if.end, label %if.then

if.then:                                          ; preds = %entry
  %cmp = icmp eq ptr %tag, null
  %cond = select i1 %cmp, ptr @.str.29, ptr %tag
  %call1 = call i32 (ptr, ...) @printf(ptr noundef nonnull dereferenceable(1) @.str.123, ptr noundef nonnull %cond, i32 noundef %startline)
  br label %if.end

if.end:                                           ; preds = %if.then, %entry
  %1 = load i32, ptr %status, align 4
  %cmp.i = icmp slt i32 %1, 1
  br i1 %cmp.i, label %if.end5, label %return

if.end5:                                          ; preds = %if.end
  %inputdir = getelementptr inbounds i8, ptr %state, i64 216
  %2 = load ptr, ptr %inputdir, align 8
  %cmp6.not = icmp eq ptr %2, null
  br i1 %cmp6.not, label %if.end16, label %if.then7

if.then7:                                         ; preds = %if.end5
  %call9 = call ptr @strcat(ptr noundef nonnull dereferenceable(1) %filename, ptr noundef nonnull dereferenceable(1) %2) #19
  %inputdirLength = getelementptr inbounds i8, ptr %state, i64 224
  %3 = load i32, ptr %inputdirLength, align 8
  %sub = add i32 %3, -1
  %idxprom = zext i32 %sub to i64
  %arrayidx = getelementptr inbounds i8, ptr %2, i64 %idxprom
  %4 = load i8, ptr %arrayidx, align 1
  %cmp11.not = icmp eq i8 %4, 47
  br i1 %cmp11.not, label %if.end16, label %if.then12

if.then12:                                        ; preds = %if.then7
  %strlen = call i64 @strlen(ptr nonnull dereferenceable(1) %filename)
  %endptr = getelementptr inbounds i8, ptr %filename, i64 %strlen
  store i16 47, ptr %endptr, align 1
  br label %if.end16

if.end16:                                         ; preds = %if.then7, %if.then12, %if.end5
  %5 = load ptr, ptr %tokenValue, align 8
  %6 = load ptr, ptr %5, align 8
  %fLength = getelementptr inbounds i8, ptr %5, i64 8
  %7 = load i32, ptr %fLength, align 8
  call void @u_UCharsToChars_75(ptr noundef %6, ptr noundef nonnull %cs, i32 noundef %7)
  %lookaheadPosition.i.i = getelementptr inbounds i8, ptr %state, i64 192
  %8 = load i32, ptr %lookaheadPosition.i.i, align 8
  %idxprom.i.i = zext i32 %8 to i64
  %arrayidx.i.i = getelementptr inbounds [4 x %struct.Lookahead], ptr %state, i64 0, i64 %idxprom.i.i
  %9 = load i32, ptr %arrayidx.i.i, align 8
  %line.i.i = getelementptr inbounds [4 x %struct.Lookahead], ptr %state, i64 0, i64 %idxprom.i.i, i32 3
  %10 = load i32, ptr %line.i.i, align 8
  %add.i.i = add i32 %8, 3
  %rem.i.i = and i32 %add.i.i, 3
  %add22.i.i = add i32 %8, 1
  %rem23.i.i = and i32 %add22.i.i, 3
  store i32 %rem23.i.i, ptr %lookaheadPosition.i.i, align 8
  %idxprom26.i.i = zext nneg i32 %rem.i.i to i64
  %arrayidx27.i.i = getelementptr inbounds [4 x %struct.Lookahead], ptr %state, i64 0, i64 %idxprom26.i.i
  %comment28.i.i = getelementptr inbounds i8, ptr %arrayidx27.i.i, i64 24
  call void @ustr_setlen(ptr noundef nonnull %comment28.i.i, i32 noundef 0, ptr noundef nonnull %status)
  %value32.i.i = getelementptr inbounds i8, ptr %arrayidx27.i.i, i64 8
  call void @ustr_setlen(ptr noundef nonnull %value32.i.i, i32 noundef 0, ptr noundef nonnull %status)
  %buffer.i.i = getelementptr inbounds i8, ptr %state, i64 200
  %11 = load ptr, ptr %buffer.i.i, align 8
  %line40.i.i = getelementptr inbounds i8, ptr %arrayidx27.i.i, i64 40
  %call.i.i = call i32 @getNextToken(ptr noundef %11, ptr noundef nonnull %value32.i.i, ptr noundef nonnull %line40.i.i, ptr noundef nonnull %comment28.i.i, ptr noundef nonnull %status)
  store i32 %call.i.i, ptr %arrayidx27.i.i, align 8
  %12 = load i32, ptr %status, align 4
  %cmp.i.i = icmp slt i32 %12, 1
  br i1 %cmp.i.i, label %if.end3.i, label %return

if.end3.i:                                        ; preds = %if.end16
  %cmp4.not.i = icmp eq i32 %9, 2
  br i1 %cmp4.not.i, label %_ZL6expectP10ParseState10ETokenTypePP7UStringS3_PjP10UErrorCode.exit.thread, label %_ZL6expectP10ParseState10ETokenTypePP7UStringS3_PjP10UErrorCode.exit

_ZL6expectP10ParseState10ETokenTypePP7UStringS3_PjP10UErrorCode.exit.thread: ; preds = %if.end3.i
  store i32 0, ptr %status, align 4
  br label %if.end21

_ZL6expectP10ParseState10ETokenTypePP7UStringS3_PjP10UErrorCode.exit: ; preds = %if.end3.i
  store i32 3, ptr %status, align 4
  %13 = load ptr, ptr getelementptr inbounds ([7 x ptr], ptr @tokenNames, i64 0, i64 2), align 16
  %idxprom6.i = zext i32 %9 to i64
  %arrayidx7.i = getelementptr inbounds [7 x ptr], ptr @tokenNames, i64 0, i64 %idxprom6.i
  %14 = load ptr, ptr %arrayidx7.i, align 8
  call void (i32, ptr, ...) @error(i32 noundef %10, ptr noundef nonnull @.str.10, ptr noundef %13, ptr noundef %14)
  %.pre = load i32, ptr %status, align 4
  %15 = icmp slt i32 %.pre, 1
  br i1 %15, label %if.end21, label %return

if.end21:                                         ; preds = %_ZL6expectP10ParseState10ETokenTypePP7UStringS3_PjP10UErrorCode.exit.thread, %_ZL6expectP10ParseState10ETokenTypePP7UStringS3_PjP10UErrorCode.exit
  %call24 = call ptr @strcat(ptr noundef nonnull dereferenceable(1) %filename, ptr noundef nonnull dereferenceable(1) %cs) #19
  %call26 = call signext i8 @getShowWarning()
  %call27 = call ptr @ucbuf_open(ptr noundef nonnull %filename, ptr noundef nonnull %cp, i8 noundef signext %call26, i8 noundef signext 0, ptr noundef nonnull %status)
  %16 = load i32, ptr %status, align 4
  %cmp.i23 = icmp slt i32 %16, 1
  br i1 %cmp.i23, label %if.end32, label %if.then30

if.then30:                                        ; preds = %if.end21
  %17 = load i32, ptr %line, align 4
  call void (i32, ptr, ...) @error(i32 noundef %17, ptr noundef nonnull @.str.125, ptr noundef nonnull %filename)
  br label %return

if.end32:                                         ; preds = %if.end21
  %call33 = call ptr @ucbuf_getBuffer(ptr noundef %call27, ptr noundef nonnull %size, ptr noundef nonnull %status)
  %18 = load i32, ptr %size, align 4
  %add = shl i32 %18, 1
  %mul = add i32 %add, 2
  %conv34 = sext i32 %mul to i64
  %call35 = call noalias ptr @uprv_malloc_75(i64 noundef %conv34) #20
  %19 = load i32, ptr %size, align 4
  %mul36 = shl nsw i32 %19, 1
  %conv37 = sext i32 %mul36 to i64
  call void @llvm.memset.p0.i64(ptr align 2 %call35, i8 0, i64 %conv37, i1 false)
  %call38 = call i32 @utrans_stripRules_75(ptr noundef %call33, i32 noundef %19, ptr noundef %call35, ptr noundef nonnull %status)
  store i32 %call38, ptr %size, align 4
  %bundle = getelementptr inbounds i8, ptr %state, i64 208
  %20 = load ptr, ptr %bundle, align 8
  %call39 = call ptr @string_open(ptr noundef %20, ptr noundef %tag, ptr noundef %call35, i32 noundef %call38, ptr noundef null, ptr noundef nonnull %status)
  call void @ucbuf_close(ptr noundef %call27)
  call void @uprv_free_75(ptr noundef %call35)
  call void @T_FileStream_close(ptr noundef null)
  br label %return

return:                                           ; preds = %if.end16, %_ZL6expectP10ParseState10ETokenTypePP7UStringS3_PjP10UErrorCode.exit, %if.end, %if.end32, %if.then30
  %retval.0 = phi ptr [ null, %if.then30 ], [ %call39, %if.end32 ], [ null, %if.end ], [ null, %_ZL6expectP10ParseState10ETokenTypePP7UStringS3_PjP10UErrorCode.exit ], [ null, %if.end16 ]
  ret ptr %retval.0
}